
bge.elf:     file format elf32-littleriscv


Disassembly of section .text.init:

00002000 <_start>:
    2000:	0040006f          	j	2004 <reset_vector>

00002004 <reset_vector>:
    2004:	51e05073          	csrwi	0x51e,0
    2008:	00000193          	li	x3,0

0000200c <test_2>:
    200c:	00200193          	li	x3,2
    2010:	00000093          	li	x1,0
    2014:	00000113          	li	x2,0
    2018:	0020d663          	bge	x1,x2,2024 <test_2+0x18>
    201c:	30301863          	bne	x0,x3,232c <fail>
    2020:	00301663          	bne	x0,x3,202c <test_3>
    2024:	fe20dee3          	bge	x1,x2,2020 <test_2+0x14>
    2028:	30301263          	bne	x0,x3,232c <fail>

0000202c <test_3>:
    202c:	00300193          	li	x3,3
    2030:	00100093          	li	x1,1
    2034:	00100113          	li	x2,1
    2038:	0020d663          	bge	x1,x2,2044 <test_3+0x18>
    203c:	2e301863          	bne	x0,x3,232c <fail>
    2040:	00301663          	bne	x0,x3,204c <test_4>
    2044:	fe20dee3          	bge	x1,x2,2040 <test_3+0x14>
    2048:	2e301263          	bne	x0,x3,232c <fail>

0000204c <test_4>:
    204c:	00400193          	li	x3,4
    2050:	fff00093          	li	x1,-1
    2054:	fff00113          	li	x2,-1
    2058:	0020d663          	bge	x1,x2,2064 <test_4+0x18>
    205c:	2c301863          	bne	x0,x3,232c <fail>
    2060:	00301663          	bne	x0,x3,206c <test_5>
    2064:	fe20dee3          	bge	x1,x2,2060 <test_4+0x14>
    2068:	2c301263          	bne	x0,x3,232c <fail>

0000206c <test_5>:
    206c:	00500193          	li	x3,5
    2070:	00100093          	li	x1,1
    2074:	00000113          	li	x2,0
    2078:	0020d663          	bge	x1,x2,2084 <test_5+0x18>
    207c:	2a301863          	bne	x0,x3,232c <fail>
    2080:	00301663          	bne	x0,x3,208c <test_6>
    2084:	fe20dee3          	bge	x1,x2,2080 <test_5+0x14>
    2088:	2a301263          	bne	x0,x3,232c <fail>

0000208c <test_6>:
    208c:	00600193          	li	x3,6
    2090:	00100093          	li	x1,1
    2094:	fff00113          	li	x2,-1
    2098:	0020d663          	bge	x1,x2,20a4 <test_6+0x18>
    209c:	28301863          	bne	x0,x3,232c <fail>
    20a0:	00301663          	bne	x0,x3,20ac <test_7>
    20a4:	fe20dee3          	bge	x1,x2,20a0 <test_6+0x14>
    20a8:	28301263          	bne	x0,x3,232c <fail>

000020ac <test_7>:
    20ac:	00700193          	li	x3,7
    20b0:	fff00093          	li	x1,-1
    20b4:	ffe00113          	li	x2,-2
    20b8:	0020d663          	bge	x1,x2,20c4 <test_7+0x18>
    20bc:	26301863          	bne	x0,x3,232c <fail>
    20c0:	00301663          	bne	x0,x3,20cc <test_8>
    20c4:	fe20dee3          	bge	x1,x2,20c0 <test_7+0x14>
    20c8:	26301263          	bne	x0,x3,232c <fail>

000020cc <test_8>:
    20cc:	00800193          	li	x3,8
    20d0:	00000093          	li	x1,0
    20d4:	00100113          	li	x2,1
    20d8:	0020d463          	bge	x1,x2,20e0 <test_8+0x14>
    20dc:	00301463          	bne	x0,x3,20e4 <test_8+0x18>
    20e0:	24301663          	bne	x0,x3,232c <fail>
    20e4:	fe20dee3          	bge	x1,x2,20e0 <test_8+0x14>

000020e8 <test_9>:
    20e8:	00900193          	li	x3,9
    20ec:	fff00093          	li	x1,-1
    20f0:	00100113          	li	x2,1
    20f4:	0020d463          	bge	x1,x2,20fc <test_9+0x14>
    20f8:	00301463          	bne	x0,x3,2100 <test_9+0x18>
    20fc:	22301863          	bne	x0,x3,232c <fail>
    2100:	fe20dee3          	bge	x1,x2,20fc <test_9+0x14>

00002104 <test_10>:
    2104:	00a00193          	li	x3,10
    2108:	ffe00093          	li	x1,-2
    210c:	fff00113          	li	x2,-1
    2110:	0020d463          	bge	x1,x2,2118 <test_10+0x14>
    2114:	00301463          	bne	x0,x3,211c <test_10+0x18>
    2118:	20301a63          	bne	x0,x3,232c <fail>
    211c:	fe20dee3          	bge	x1,x2,2118 <test_10+0x14>

00002120 <test_11>:
    2120:	00b00193          	li	x3,11
    2124:	ffe00093          	li	x1,-2
    2128:	00100113          	li	x2,1
    212c:	0020d463          	bge	x1,x2,2134 <test_11+0x14>
    2130:	00301463          	bne	x0,x3,2138 <test_11+0x18>
    2134:	1e301c63          	bne	x0,x3,232c <fail>
    2138:	fe20dee3          	bge	x1,x2,2134 <test_11+0x14>

0000213c <test_12>:
    213c:	00c00193          	li	x3,12
    2140:	00000213          	li	x4,0
    2144:	fff00093          	li	x1,-1
    2148:	00000113          	li	x2,0
    214c:	1e20d063          	bge	x1,x2,232c <fail>
    2150:	00120213          	addi	x4,x4,1 # 1 <_start-0x1fff>
    2154:	00200293          	li	x5,2
    2158:	fe5216e3          	bne	x4,x5,2144 <test_12+0x8>

0000215c <test_13>:
    215c:	00d00193          	li	x3,13
    2160:	00000213          	li	x4,0
    2164:	fff00093          	li	x1,-1
    2168:	00000113          	li	x2,0
    216c:	00000013          	nop
    2170:	1a20de63          	bge	x1,x2,232c <fail>
    2174:	00120213          	addi	x4,x4,1 # 1 <_start-0x1fff>
    2178:	00200293          	li	x5,2
    217c:	fe5214e3          	bne	x4,x5,2164 <test_13+0x8>

00002180 <test_14>:
    2180:	00e00193          	li	x3,14
    2184:	00000213          	li	x4,0
    2188:	fff00093          	li	x1,-1
    218c:	00000113          	li	x2,0
    2190:	00000013          	nop
    2194:	00000013          	nop
    2198:	1820da63          	bge	x1,x2,232c <fail>
    219c:	00120213          	addi	x4,x4,1 # 1 <_start-0x1fff>
    21a0:	00200293          	li	x5,2
    21a4:	fe5212e3          	bne	x4,x5,2188 <test_14+0x8>

000021a8 <test_15>:
    21a8:	00f00193          	li	x3,15
    21ac:	00000213          	li	x4,0
    21b0:	fff00093          	li	x1,-1
    21b4:	00000013          	nop
    21b8:	00000113          	li	x2,0
    21bc:	1620d863          	bge	x1,x2,232c <fail>
    21c0:	00120213          	addi	x4,x4,1 # 1 <_start-0x1fff>
    21c4:	00200293          	li	x5,2
    21c8:	fe5214e3          	bne	x4,x5,21b0 <test_15+0x8>

000021cc <test_16>:
    21cc:	01000193          	li	x3,16
    21d0:	00000213          	li	x4,0
    21d4:	fff00093          	li	x1,-1
    21d8:	00000013          	nop
    21dc:	00000113          	li	x2,0
    21e0:	00000013          	nop
    21e4:	1420d463          	bge	x1,x2,232c <fail>
    21e8:	00120213          	addi	x4,x4,1 # 1 <_start-0x1fff>
    21ec:	00200293          	li	x5,2
    21f0:	fe5212e3          	bne	x4,x5,21d4 <test_16+0x8>

000021f4 <test_17>:
    21f4:	01100193          	li	x3,17
    21f8:	00000213          	li	x4,0
    21fc:	fff00093          	li	x1,-1
    2200:	00000013          	nop
    2204:	00000013          	nop
    2208:	00000113          	li	x2,0
    220c:	1220d063          	bge	x1,x2,232c <fail>
    2210:	00120213          	addi	x4,x4,1 # 1 <_start-0x1fff>
    2214:	00200293          	li	x5,2
    2218:	fe5212e3          	bne	x4,x5,21fc <test_17+0x8>

0000221c <test_18>:
    221c:	01200193          	li	x3,18
    2220:	00000213          	li	x4,0
    2224:	fff00093          	li	x1,-1
    2228:	00000113          	li	x2,0
    222c:	1020d063          	bge	x1,x2,232c <fail>
    2230:	00120213          	addi	x4,x4,1 # 1 <_start-0x1fff>
    2234:	00200293          	li	x5,2
    2238:	fe5216e3          	bne	x4,x5,2224 <test_18+0x8>

0000223c <test_19>:
    223c:	01300193          	li	x3,19
    2240:	00000213          	li	x4,0
    2244:	fff00093          	li	x1,-1
    2248:	00000113          	li	x2,0
    224c:	00000013          	nop
    2250:	0c20de63          	bge	x1,x2,232c <fail>
    2254:	00120213          	addi	x4,x4,1 # 1 <_start-0x1fff>
    2258:	00200293          	li	x5,2
    225c:	fe5214e3          	bne	x4,x5,2244 <test_19+0x8>

00002260 <test_20>:
    2260:	01400193          	li	x3,20
    2264:	00000213          	li	x4,0
    2268:	fff00093          	li	x1,-1
    226c:	00000113          	li	x2,0
    2270:	00000013          	nop
    2274:	00000013          	nop
    2278:	0a20da63          	bge	x1,x2,232c <fail>
    227c:	00120213          	addi	x4,x4,1 # 1 <_start-0x1fff>
    2280:	00200293          	li	x5,2
    2284:	fe5212e3          	bne	x4,x5,2268 <test_20+0x8>

00002288 <test_21>:
    2288:	01500193          	li	x3,21
    228c:	00000213          	li	x4,0
    2290:	fff00093          	li	x1,-1
    2294:	00000013          	nop
    2298:	00000113          	li	x2,0
    229c:	0820d863          	bge	x1,x2,232c <fail>
    22a0:	00120213          	addi	x4,x4,1 # 1 <_start-0x1fff>
    22a4:	00200293          	li	x5,2
    22a8:	fe5214e3          	bne	x4,x5,2290 <test_21+0x8>

000022ac <test_22>:
    22ac:	01600193          	li	x3,22
    22b0:	00000213          	li	x4,0
    22b4:	fff00093          	li	x1,-1
    22b8:	00000013          	nop
    22bc:	00000113          	li	x2,0
    22c0:	00000013          	nop
    22c4:	0620d463          	bge	x1,x2,232c <fail>
    22c8:	00120213          	addi	x4,x4,1 # 1 <_start-0x1fff>
    22cc:	00200293          	li	x5,2
    22d0:	fe5212e3          	bne	x4,x5,22b4 <test_22+0x8>

000022d4 <test_23>:
    22d4:	01700193          	li	x3,23
    22d8:	00000213          	li	x4,0
    22dc:	fff00093          	li	x1,-1
    22e0:	00000013          	nop
    22e4:	00000013          	nop
    22e8:	00000113          	li	x2,0
    22ec:	0420d063          	bge	x1,x2,232c <fail>
    22f0:	00120213          	addi	x4,x4,1 # 1 <_start-0x1fff>
    22f4:	00200293          	li	x5,2
    22f8:	fe5212e3          	bne	x4,x5,22dc <test_23+0x8>

000022fc <test_24>:
    22fc:	00100093          	li	x1,1
    2300:	0000da63          	bgez	x1,2314 <test_24+0x18>
    2304:	00108093          	addi	x1,x1,1
    2308:	00108093          	addi	x1,x1,1
    230c:	00108093          	addi	x1,x1,1
    2310:	00108093          	addi	x1,x1,1
    2314:	00108093          	addi	x1,x1,1
    2318:	00108093          	addi	x1,x1,1
    231c:	00300393          	li	x7,3
    2320:	01800193          	li	x3,24
    2324:	00709463          	bne	x1,x7,232c <fail>
    2328:	00301a63          	bne	x0,x3,233c <pass>

0000232c <fail>:
    232c:	00119193          	slli	x3,x3,0x1
    2330:	0011e193          	ori	x3,x3,1
    2334:	51e19073          	csrw	0x51e,x3

00002338 <f>:
    2338:	0000006f          	j	2338 <f>

0000233c <pass>:
    233c:	00100193          	li	x3,1
    2340:	51e19073          	csrw	0x51e,x3

00002344 <p>:
    2344:	0000006f          	j	2344 <p>
    2348:	c0001073          	unimp
	...
