
bne.elf:     file format elf32-littleriscv


Disassembly of section .text.init:

00002000 <_start>:
    2000:	0040006f          	j	2004 <reset_vector>

00002004 <reset_vector>:
    2004:	51e05073          	csrwi	0x51e,0
    2008:	00000193          	li	x3,0

0000200c <test_2>:
    200c:	00200193          	li	x3,2
    2010:	00000093          	li	x1,0
    2014:	00100113          	li	x2,1
    2018:	00209663          	bne	x1,x2,2024 <test_2+0x18>
    201c:	2a301a63          	bne	x0,x3,22d0 <fail>
    2020:	00301663          	bne	x0,x3,202c <test_3>
    2024:	fe209ee3          	bne	x1,x2,2020 <test_2+0x14>
    2028:	2a301463          	bne	x0,x3,22d0 <fail>

0000202c <test_3>:
    202c:	00300193          	li	x3,3
    2030:	00100093          	li	x1,1
    2034:	00000113          	li	x2,0
    2038:	00209663          	bne	x1,x2,2044 <test_3+0x18>
    203c:	28301a63          	bne	x0,x3,22d0 <fail>
    2040:	00301663          	bne	x0,x3,204c <test_4>
    2044:	fe209ee3          	bne	x1,x2,2040 <test_3+0x14>
    2048:	28301463          	bne	x0,x3,22d0 <fail>

0000204c <test_4>:
    204c:	00400193          	li	x3,4
    2050:	fff00093          	li	x1,-1
    2054:	00100113          	li	x2,1
    2058:	00209663          	bne	x1,x2,2064 <test_4+0x18>
    205c:	26301a63          	bne	x0,x3,22d0 <fail>
    2060:	00301663          	bne	x0,x3,206c <test_5>
    2064:	fe209ee3          	bne	x1,x2,2060 <test_4+0x14>
    2068:	26301463          	bne	x0,x3,22d0 <fail>

0000206c <test_5>:
    206c:	00500193          	li	x3,5
    2070:	00100093          	li	x1,1
    2074:	fff00113          	li	x2,-1
    2078:	00209663          	bne	x1,x2,2084 <test_5+0x18>
    207c:	24301a63          	bne	x0,x3,22d0 <fail>
    2080:	00301663          	bne	x0,x3,208c <test_6>
    2084:	fe209ee3          	bne	x1,x2,2080 <test_5+0x14>
    2088:	24301463          	bne	x0,x3,22d0 <fail>

0000208c <test_6>:
    208c:	00600193          	li	x3,6
    2090:	00000093          	li	x1,0
    2094:	00000113          	li	x2,0
    2098:	00209463          	bne	x1,x2,20a0 <test_6+0x14>
    209c:	00301463          	bne	x0,x3,20a4 <test_6+0x18>
    20a0:	22301863          	bne	x0,x3,22d0 <fail>
    20a4:	fe209ee3          	bne	x1,x2,20a0 <test_6+0x14>

000020a8 <test_7>:
    20a8:	00700193          	li	x3,7
    20ac:	00100093          	li	x1,1
    20b0:	00100113          	li	x2,1
    20b4:	00209463          	bne	x1,x2,20bc <test_7+0x14>
    20b8:	00301463          	bne	x0,x3,20c0 <test_7+0x18>
    20bc:	20301a63          	bne	x0,x3,22d0 <fail>
    20c0:	fe209ee3          	bne	x1,x2,20bc <test_7+0x14>

000020c4 <test_8>:
    20c4:	00800193          	li	x3,8
    20c8:	fff00093          	li	x1,-1
    20cc:	fff00113          	li	x2,-1
    20d0:	00209463          	bne	x1,x2,20d8 <test_8+0x14>
    20d4:	00301463          	bne	x0,x3,20dc <test_8+0x18>
    20d8:	1e301c63          	bne	x0,x3,22d0 <fail>
    20dc:	fe209ee3          	bne	x1,x2,20d8 <test_8+0x14>

000020e0 <test_9>:
    20e0:	00900193          	li	x3,9
    20e4:	00000213          	li	x4,0
    20e8:	00000093          	li	x1,0
    20ec:	00000113          	li	x2,0
    20f0:	1e209063          	bne	x1,x2,22d0 <fail>
    20f4:	00120213          	addi	x4,x4,1 # 1 <_start-0x1fff>
    20f8:	00200293          	li	x5,2
    20fc:	fe5216e3          	bne	x4,x5,20e8 <test_9+0x8>

00002100 <test_10>:
    2100:	00a00193          	li	x3,10
    2104:	00000213          	li	x4,0
    2108:	00000093          	li	x1,0
    210c:	00000113          	li	x2,0
    2110:	00000013          	nop
    2114:	1a209e63          	bne	x1,x2,22d0 <fail>
    2118:	00120213          	addi	x4,x4,1 # 1 <_start-0x1fff>
    211c:	00200293          	li	x5,2
    2120:	fe5214e3          	bne	x4,x5,2108 <test_10+0x8>

00002124 <test_11>:
    2124:	00b00193          	li	x3,11
    2128:	00000213          	li	x4,0
    212c:	00000093          	li	x1,0
    2130:	00000113          	li	x2,0
    2134:	00000013          	nop
    2138:	00000013          	nop
    213c:	18209a63          	bne	x1,x2,22d0 <fail>
    2140:	00120213          	addi	x4,x4,1 # 1 <_start-0x1fff>
    2144:	00200293          	li	x5,2
    2148:	fe5212e3          	bne	x4,x5,212c <test_11+0x8>

0000214c <test_12>:
    214c:	00c00193          	li	x3,12
    2150:	00000213          	li	x4,0
    2154:	00000093          	li	x1,0
    2158:	00000013          	nop
    215c:	00000113          	li	x2,0
    2160:	16209863          	bne	x1,x2,22d0 <fail>
    2164:	00120213          	addi	x4,x4,1 # 1 <_start-0x1fff>
    2168:	00200293          	li	x5,2
    216c:	fe5214e3          	bne	x4,x5,2154 <test_12+0x8>

00002170 <test_13>:
    2170:	00d00193          	li	x3,13
    2174:	00000213          	li	x4,0
    2178:	00000093          	li	x1,0
    217c:	00000013          	nop
    2180:	00000113          	li	x2,0
    2184:	00000013          	nop
    2188:	14209463          	bne	x1,x2,22d0 <fail>
    218c:	00120213          	addi	x4,x4,1 # 1 <_start-0x1fff>
    2190:	00200293          	li	x5,2
    2194:	fe5212e3          	bne	x4,x5,2178 <test_13+0x8>

00002198 <test_14>:
    2198:	00e00193          	li	x3,14
    219c:	00000213          	li	x4,0
    21a0:	00000093          	li	x1,0
    21a4:	00000013          	nop
    21a8:	00000013          	nop
    21ac:	00000113          	li	x2,0
    21b0:	12209063          	bne	x1,x2,22d0 <fail>
    21b4:	00120213          	addi	x4,x4,1 # 1 <_start-0x1fff>
    21b8:	00200293          	li	x5,2
    21bc:	fe5212e3          	bne	x4,x5,21a0 <test_14+0x8>

000021c0 <test_15>:
    21c0:	00f00193          	li	x3,15
    21c4:	00000213          	li	x4,0
    21c8:	00000093          	li	x1,0
    21cc:	00000113          	li	x2,0
    21d0:	10209063          	bne	x1,x2,22d0 <fail>
    21d4:	00120213          	addi	x4,x4,1 # 1 <_start-0x1fff>
    21d8:	00200293          	li	x5,2
    21dc:	fe5216e3          	bne	x4,x5,21c8 <test_15+0x8>

000021e0 <test_16>:
    21e0:	01000193          	li	x3,16
    21e4:	00000213          	li	x4,0
    21e8:	00000093          	li	x1,0
    21ec:	00000113          	li	x2,0
    21f0:	00000013          	nop
    21f4:	0c209e63          	bne	x1,x2,22d0 <fail>
    21f8:	00120213          	addi	x4,x4,1 # 1 <_start-0x1fff>
    21fc:	00200293          	li	x5,2
    2200:	fe5214e3          	bne	x4,x5,21e8 <test_16+0x8>

00002204 <test_17>:
    2204:	01100193          	li	x3,17
    2208:	00000213          	li	x4,0
    220c:	00000093          	li	x1,0
    2210:	00000113          	li	x2,0
    2214:	00000013          	nop
    2218:	00000013          	nop
    221c:	0a209a63          	bne	x1,x2,22d0 <fail>
    2220:	00120213          	addi	x4,x4,1 # 1 <_start-0x1fff>
    2224:	00200293          	li	x5,2
    2228:	fe5212e3          	bne	x4,x5,220c <test_17+0x8>

0000222c <test_18>:
    222c:	01200193          	li	x3,18
    2230:	00000213          	li	x4,0
    2234:	00000093          	li	x1,0
    2238:	00000013          	nop
    223c:	00000113          	li	x2,0
    2240:	08209863          	bne	x1,x2,22d0 <fail>
    2244:	00120213          	addi	x4,x4,1 # 1 <_start-0x1fff>
    2248:	00200293          	li	x5,2
    224c:	fe5214e3          	bne	x4,x5,2234 <test_18+0x8>

00002250 <test_19>:
    2250:	01300193          	li	x3,19
    2254:	00000213          	li	x4,0
    2258:	00000093          	li	x1,0
    225c:	00000013          	nop
    2260:	00000113          	li	x2,0
    2264:	00000013          	nop
    2268:	06209463          	bne	x1,x2,22d0 <fail>
    226c:	00120213          	addi	x4,x4,1 # 1 <_start-0x1fff>
    2270:	00200293          	li	x5,2
    2274:	fe5212e3          	bne	x4,x5,2258 <test_19+0x8>

00002278 <test_20>:
    2278:	01400193          	li	x3,20
    227c:	00000213          	li	x4,0
    2280:	00000093          	li	x1,0
    2284:	00000013          	nop
    2288:	00000013          	nop
    228c:	00000113          	li	x2,0
    2290:	04209063          	bne	x1,x2,22d0 <fail>
    2294:	00120213          	addi	x4,x4,1 # 1 <_start-0x1fff>
    2298:	00200293          	li	x5,2
    229c:	fe5212e3          	bne	x4,x5,2280 <test_20+0x8>

000022a0 <test_21>:
    22a0:	00100093          	li	x1,1
    22a4:	00009a63          	bnez	x1,22b8 <test_21+0x18>
    22a8:	00108093          	addi	x1,x1,1
    22ac:	00108093          	addi	x1,x1,1
    22b0:	00108093          	addi	x1,x1,1
    22b4:	00108093          	addi	x1,x1,1
    22b8:	00108093          	addi	x1,x1,1
    22bc:	00108093          	addi	x1,x1,1
    22c0:	00300393          	li	x7,3
    22c4:	01500193          	li	x3,21
    22c8:	00709463          	bne	x1,x7,22d0 <fail>
    22cc:	00301a63          	bne	x0,x3,22e0 <pass>

000022d0 <fail>:
    22d0:	00119193          	slli	x3,x3,0x1
    22d4:	0011e193          	ori	x3,x3,1
    22d8:	51e19073          	csrw	0x51e,x3

000022dc <f>:
    22dc:	0000006f          	j	22dc <f>

000022e0 <pass>:
    22e0:	00100193          	li	x3,1
    22e4:	51e19073          	csrw	0x51e,x3

000022e8 <p>:
    22e8:	0000006f          	j	22e8 <p>
    22ec:	c0001073          	unimp
	...
