
sll.elf:     file format elf32-littleriscv


Disassembly of section .text.init:

00002000 <_start>:
    2000:	0040006f          	j	2004 <reset_vector>

00002004 <reset_vector>:
    2004:	51e05073          	csrwi	0x51e,0
    2008:	00000193          	li	x3,0

0000200c <test_2>:
    200c:	00100093          	li	x1,1
    2010:	00000113          	li	x2,0
    2014:	00209733          	sll	x14,x1,x2
    2018:	00100393          	li	x7,1
    201c:	00200193          	li	x3,2
    2020:	52771e63          	bne	x14,x7,255c <fail>

00002024 <test_3>:
    2024:	00100093          	li	x1,1
    2028:	00100113          	li	x2,1
    202c:	00209733          	sll	x14,x1,x2
    2030:	00200393          	li	x7,2
    2034:	00300193          	li	x3,3
    2038:	52771263          	bne	x14,x7,255c <fail>

0000203c <test_4>:
    203c:	00100093          	li	x1,1
    2040:	00700113          	li	x2,7
    2044:	00209733          	sll	x14,x1,x2
    2048:	08000393          	li	x7,128
    204c:	00400193          	li	x3,4
    2050:	50771663          	bne	x14,x7,255c <fail>

00002054 <test_5>:
    2054:	00100093          	li	x1,1
    2058:	00e00113          	li	x2,14
    205c:	00209733          	sll	x14,x1,x2
    2060:	000043b7          	lui	x7,0x4
    2064:	00500193          	li	x3,5
    2068:	4e771a63          	bne	x14,x7,255c <fail>

0000206c <test_6>:
    206c:	00100093          	li	x1,1
    2070:	01f00113          	li	x2,31
    2074:	00209733          	sll	x14,x1,x2
    2078:	800003b7          	lui	x7,0x80000
    207c:	00600193          	li	x3,6
    2080:	4c771e63          	bne	x14,x7,255c <fail>

00002084 <test_7>:
    2084:	fff00093          	li	x1,-1
    2088:	00000113          	li	x2,0
    208c:	00209733          	sll	x14,x1,x2
    2090:	fff00393          	li	x7,-1
    2094:	00700193          	li	x3,7
    2098:	4c771263          	bne	x14,x7,255c <fail>

0000209c <test_8>:
    209c:	fff00093          	li	x1,-1
    20a0:	00100113          	li	x2,1
    20a4:	00209733          	sll	x14,x1,x2
    20a8:	ffe00393          	li	x7,-2
    20ac:	00800193          	li	x3,8
    20b0:	4a771663          	bne	x14,x7,255c <fail>

000020b4 <test_9>:
    20b4:	fff00093          	li	x1,-1
    20b8:	00700113          	li	x2,7
    20bc:	00209733          	sll	x14,x1,x2
    20c0:	f8000393          	li	x7,-128
    20c4:	00900193          	li	x3,9
    20c8:	48771a63          	bne	x14,x7,255c <fail>

000020cc <test_10>:
    20cc:	fff00093          	li	x1,-1
    20d0:	00e00113          	li	x2,14
    20d4:	00209733          	sll	x14,x1,x2
    20d8:	ffffc3b7          	lui	x7,0xffffc
    20dc:	00a00193          	li	x3,10
    20e0:	46771e63          	bne	x14,x7,255c <fail>

000020e4 <test_11>:
    20e4:	fff00093          	li	x1,-1
    20e8:	01f00113          	li	x2,31
    20ec:	00209733          	sll	x14,x1,x2
    20f0:	800003b7          	lui	x7,0x80000
    20f4:	00b00193          	li	x3,11
    20f8:	46771263          	bne	x14,x7,255c <fail>

000020fc <test_12>:
    20fc:	212120b7          	lui	x1,0x21212
    2100:	12108093          	addi	x1,x1,289 # 21212121 <_end+0x2120f121>
    2104:	00000113          	li	x2,0
    2108:	00209733          	sll	x14,x1,x2
    210c:	212123b7          	lui	x7,0x21212
    2110:	12138393          	addi	x7,x7,289 # 21212121 <_end+0x2120f121>
    2114:	00c00193          	li	x3,12
    2118:	44771263          	bne	x14,x7,255c <fail>

0000211c <test_13>:
    211c:	212120b7          	lui	x1,0x21212
    2120:	12108093          	addi	x1,x1,289 # 21212121 <_end+0x2120f121>
    2124:	00100113          	li	x2,1
    2128:	00209733          	sll	x14,x1,x2
    212c:	424243b7          	lui	x7,0x42424
    2130:	24238393          	addi	x7,x7,578 # 42424242 <_end+0x42421242>
    2134:	00d00193          	li	x3,13
    2138:	42771263          	bne	x14,x7,255c <fail>

0000213c <test_14>:
    213c:	212120b7          	lui	x1,0x21212
    2140:	12108093          	addi	x1,x1,289 # 21212121 <_end+0x2120f121>
    2144:	00700113          	li	x2,7
    2148:	00209733          	sll	x14,x1,x2
    214c:	909093b7          	lui	x7,0x90909
    2150:	08038393          	addi	x7,x7,128 # 90909080 <_end+0x90906080>
    2154:	00e00193          	li	x3,14
    2158:	40771263          	bne	x14,x7,255c <fail>

0000215c <test_15>:
    215c:	212120b7          	lui	x1,0x21212
    2160:	12108093          	addi	x1,x1,289 # 21212121 <_end+0x2120f121>
    2164:	00e00113          	li	x2,14
    2168:	00209733          	sll	x14,x1,x2
    216c:	484843b7          	lui	x7,0x48484
    2170:	00f00193          	li	x3,15
    2174:	3e771463          	bne	x14,x7,255c <fail>

00002178 <test_16>:
    2178:	212120b7          	lui	x1,0x21212
    217c:	12108093          	addi	x1,x1,289 # 21212121 <_end+0x2120f121>
    2180:	01f00113          	li	x2,31
    2184:	00209733          	sll	x14,x1,x2
    2188:	800003b7          	lui	x7,0x80000
    218c:	01000193          	li	x3,16
    2190:	3c771663          	bne	x14,x7,255c <fail>

00002194 <test_17>:
    2194:	212120b7          	lui	x1,0x21212
    2198:	12108093          	addi	x1,x1,289 # 21212121 <_end+0x2120f121>
    219c:	fc000113          	li	x2,-64
    21a0:	00209733          	sll	x14,x1,x2
    21a4:	212123b7          	lui	x7,0x21212
    21a8:	12138393          	addi	x7,x7,289 # 21212121 <_end+0x2120f121>
    21ac:	01100193          	li	x3,17
    21b0:	3a771663          	bne	x14,x7,255c <fail>

000021b4 <test_18>:
    21b4:	212120b7          	lui	x1,0x21212
    21b8:	12108093          	addi	x1,x1,289 # 21212121 <_end+0x2120f121>
    21bc:	fc100113          	li	x2,-63
    21c0:	00209733          	sll	x14,x1,x2
    21c4:	424243b7          	lui	x7,0x42424
    21c8:	24238393          	addi	x7,x7,578 # 42424242 <_end+0x42421242>
    21cc:	01200193          	li	x3,18
    21d0:	38771663          	bne	x14,x7,255c <fail>

000021d4 <test_19>:
    21d4:	212120b7          	lui	x1,0x21212
    21d8:	12108093          	addi	x1,x1,289 # 21212121 <_end+0x2120f121>
    21dc:	fc700113          	li	x2,-57
    21e0:	00209733          	sll	x14,x1,x2
    21e4:	909093b7          	lui	x7,0x90909
    21e8:	08038393          	addi	x7,x7,128 # 90909080 <_end+0x90906080>
    21ec:	01300193          	li	x3,19
    21f0:	36771663          	bne	x14,x7,255c <fail>

000021f4 <test_20>:
    21f4:	212120b7          	lui	x1,0x21212
    21f8:	12108093          	addi	x1,x1,289 # 21212121 <_end+0x2120f121>
    21fc:	fce00113          	li	x2,-50
    2200:	00209733          	sll	x14,x1,x2
    2204:	484843b7          	lui	x7,0x48484
    2208:	01400193          	li	x3,20
    220c:	34771863          	bne	x14,x7,255c <fail>

00002210 <test_22>:
    2210:	00100093          	li	x1,1
    2214:	00700113          	li	x2,7
    2218:	002090b3          	sll	x1,x1,x2
    221c:	08000393          	li	x7,128
    2220:	01600193          	li	x3,22
    2224:	32709c63          	bne	x1,x7,255c <fail>

00002228 <test_23>:
    2228:	00100093          	li	x1,1
    222c:	00e00113          	li	x2,14
    2230:	00209133          	sll	x2,x1,x2
    2234:	000043b7          	lui	x7,0x4
    2238:	01700193          	li	x3,23
    223c:	32711063          	bne	x2,x7,255c <fail>

00002240 <test_24>:
    2240:	00300093          	li	x1,3
    2244:	001090b3          	sll	x1,x1,x1
    2248:	01800393          	li	x7,24
    224c:	01800193          	li	x3,24
    2250:	30709663          	bne	x1,x7,255c <fail>

00002254 <test_25>:
    2254:	00000213          	li	x4,0
    2258:	00100093          	li	x1,1
    225c:	00700113          	li	x2,7
    2260:	00209733          	sll	x14,x1,x2
    2264:	00070313          	mv	x6,x14
    2268:	00120213          	addi	x4,x4,1 # 1 <_start-0x1fff>
    226c:	00200293          	li	x5,2
    2270:	fe5214e3          	bne	x4,x5,2258 <test_25+0x4>
    2274:	08000393          	li	x7,128
    2278:	01900193          	li	x3,25
    227c:	2e731063          	bne	x6,x7,255c <fail>

00002280 <test_26>:
    2280:	00000213          	li	x4,0
    2284:	00100093          	li	x1,1
    2288:	00e00113          	li	x2,14
    228c:	00209733          	sll	x14,x1,x2
    2290:	00000013          	nop
    2294:	00070313          	mv	x6,x14
    2298:	00120213          	addi	x4,x4,1 # 1 <_start-0x1fff>
    229c:	00200293          	li	x5,2
    22a0:	fe5212e3          	bne	x4,x5,2284 <test_26+0x4>
    22a4:	000043b7          	lui	x7,0x4
    22a8:	01a00193          	li	x3,26
    22ac:	2a731863          	bne	x6,x7,255c <fail>

000022b0 <test_27>:
    22b0:	00000213          	li	x4,0
    22b4:	00100093          	li	x1,1
    22b8:	01f00113          	li	x2,31
    22bc:	00209733          	sll	x14,x1,x2
    22c0:	00000013          	nop
    22c4:	00000013          	nop
    22c8:	00070313          	mv	x6,x14
    22cc:	00120213          	addi	x4,x4,1 # 1 <_start-0x1fff>
    22d0:	00200293          	li	x5,2
    22d4:	fe5210e3          	bne	x4,x5,22b4 <test_27+0x4>
    22d8:	800003b7          	lui	x7,0x80000
    22dc:	01b00193          	li	x3,27
    22e0:	26731e63          	bne	x6,x7,255c <fail>

000022e4 <test_28>:
    22e4:	00000213          	li	x4,0
    22e8:	00100093          	li	x1,1
    22ec:	00700113          	li	x2,7
    22f0:	00209733          	sll	x14,x1,x2
    22f4:	00120213          	addi	x4,x4,1 # 1 <_start-0x1fff>
    22f8:	00200293          	li	x5,2
    22fc:	fe5216e3          	bne	x4,x5,22e8 <test_28+0x4>
    2300:	08000393          	li	x7,128
    2304:	01c00193          	li	x3,28
    2308:	24771a63          	bne	x14,x7,255c <fail>

0000230c <test_29>:
    230c:	00000213          	li	x4,0
    2310:	00100093          	li	x1,1
    2314:	00e00113          	li	x2,14
    2318:	00000013          	nop
    231c:	00209733          	sll	x14,x1,x2
    2320:	00120213          	addi	x4,x4,1 # 1 <_start-0x1fff>
    2324:	00200293          	li	x5,2
    2328:	fe5214e3          	bne	x4,x5,2310 <test_29+0x4>
    232c:	000043b7          	lui	x7,0x4
    2330:	01d00193          	li	x3,29
    2334:	22771463          	bne	x14,x7,255c <fail>

00002338 <test_30>:
    2338:	00000213          	li	x4,0
    233c:	00100093          	li	x1,1
    2340:	01f00113          	li	x2,31
    2344:	00000013          	nop
    2348:	00000013          	nop
    234c:	00209733          	sll	x14,x1,x2
    2350:	00120213          	addi	x4,x4,1 # 1 <_start-0x1fff>
    2354:	00200293          	li	x5,2
    2358:	fe5212e3          	bne	x4,x5,233c <test_30+0x4>
    235c:	800003b7          	lui	x7,0x80000
    2360:	01e00193          	li	x3,30
    2364:	1e771c63          	bne	x14,x7,255c <fail>

00002368 <test_31>:
    2368:	00000213          	li	x4,0
    236c:	00100093          	li	x1,1
    2370:	00000013          	nop
    2374:	00700113          	li	x2,7
    2378:	00209733          	sll	x14,x1,x2
    237c:	00120213          	addi	x4,x4,1 # 1 <_start-0x1fff>
    2380:	00200293          	li	x5,2
    2384:	fe5214e3          	bne	x4,x5,236c <test_31+0x4>
    2388:	08000393          	li	x7,128
    238c:	01f00193          	li	x3,31
    2390:	1c771663          	bne	x14,x7,255c <fail>

00002394 <test_32>:
    2394:	00000213          	li	x4,0
    2398:	00100093          	li	x1,1
    239c:	00000013          	nop
    23a0:	00e00113          	li	x2,14
    23a4:	00000013          	nop
    23a8:	00209733          	sll	x14,x1,x2
    23ac:	00120213          	addi	x4,x4,1 # 1 <_start-0x1fff>
    23b0:	00200293          	li	x5,2
    23b4:	fe5212e3          	bne	x4,x5,2398 <test_32+0x4>
    23b8:	000043b7          	lui	x7,0x4
    23bc:	02000193          	li	x3,32
    23c0:	18771e63          	bne	x14,x7,255c <fail>

000023c4 <test_33>:
    23c4:	00000213          	li	x4,0
    23c8:	00100093          	li	x1,1
    23cc:	00000013          	nop
    23d0:	00000013          	nop
    23d4:	01f00113          	li	x2,31
    23d8:	00209733          	sll	x14,x1,x2
    23dc:	00120213          	addi	x4,x4,1 # 1 <_start-0x1fff>
    23e0:	00200293          	li	x5,2
    23e4:	fe5212e3          	bne	x4,x5,23c8 <test_33+0x4>
    23e8:	800003b7          	lui	x7,0x80000
    23ec:	02100193          	li	x3,33
    23f0:	16771663          	bne	x14,x7,255c <fail>

000023f4 <test_34>:
    23f4:	00000213          	li	x4,0
    23f8:	00700113          	li	x2,7
    23fc:	00100093          	li	x1,1
    2400:	00209733          	sll	x14,x1,x2
    2404:	00120213          	addi	x4,x4,1 # 1 <_start-0x1fff>
    2408:	00200293          	li	x5,2
    240c:	fe5216e3          	bne	x4,x5,23f8 <test_34+0x4>
    2410:	08000393          	li	x7,128
    2414:	02200193          	li	x3,34
    2418:	14771263          	bne	x14,x7,255c <fail>

0000241c <test_35>:
    241c:	00000213          	li	x4,0
    2420:	00e00113          	li	x2,14
    2424:	00100093          	li	x1,1
    2428:	00000013          	nop
    242c:	00209733          	sll	x14,x1,x2
    2430:	00120213          	addi	x4,x4,1 # 1 <_start-0x1fff>
    2434:	00200293          	li	x5,2
    2438:	fe5214e3          	bne	x4,x5,2420 <test_35+0x4>
    243c:	000043b7          	lui	x7,0x4
    2440:	02300193          	li	x3,35
    2444:	10771c63          	bne	x14,x7,255c <fail>

00002448 <test_36>:
    2448:	00000213          	li	x4,0
    244c:	01f00113          	li	x2,31
    2450:	00100093          	li	x1,1
    2454:	00000013          	nop
    2458:	00000013          	nop
    245c:	00209733          	sll	x14,x1,x2
    2460:	00120213          	addi	x4,x4,1 # 1 <_start-0x1fff>
    2464:	00200293          	li	x5,2
    2468:	fe5212e3          	bne	x4,x5,244c <test_36+0x4>
    246c:	800003b7          	lui	x7,0x80000
    2470:	02400193          	li	x3,36
    2474:	0e771463          	bne	x14,x7,255c <fail>

00002478 <test_37>:
    2478:	00000213          	li	x4,0
    247c:	00700113          	li	x2,7
    2480:	00000013          	nop
    2484:	00100093          	li	x1,1
    2488:	00209733          	sll	x14,x1,x2
    248c:	00120213          	addi	x4,x4,1 # 1 <_start-0x1fff>
    2490:	00200293          	li	x5,2
    2494:	fe5214e3          	bne	x4,x5,247c <test_37+0x4>
    2498:	08000393          	li	x7,128
    249c:	02500193          	li	x3,37
    24a0:	0a771e63          	bne	x14,x7,255c <fail>

000024a4 <test_38>:
    24a4:	00000213          	li	x4,0
    24a8:	00e00113          	li	x2,14
    24ac:	00000013          	nop
    24b0:	00100093          	li	x1,1
    24b4:	00000013          	nop
    24b8:	00209733          	sll	x14,x1,x2
    24bc:	00120213          	addi	x4,x4,1 # 1 <_start-0x1fff>
    24c0:	00200293          	li	x5,2
    24c4:	fe5212e3          	bne	x4,x5,24a8 <test_38+0x4>
    24c8:	000043b7          	lui	x7,0x4
    24cc:	02600193          	li	x3,38
    24d0:	08771663          	bne	x14,x7,255c <fail>

000024d4 <test_39>:
    24d4:	00000213          	li	x4,0
    24d8:	01f00113          	li	x2,31
    24dc:	00000013          	nop
    24e0:	00000013          	nop
    24e4:	00100093          	li	x1,1
    24e8:	00209733          	sll	x14,x1,x2
    24ec:	00120213          	addi	x4,x4,1 # 1 <_start-0x1fff>
    24f0:	00200293          	li	x5,2
    24f4:	fe5212e3          	bne	x4,x5,24d8 <test_39+0x4>
    24f8:	800003b7          	lui	x7,0x80000
    24fc:	02700193          	li	x3,39
    2500:	04771e63          	bne	x14,x7,255c <fail>

00002504 <test_40>:
    2504:	00f00093          	li	x1,15
    2508:	00101133          	sll	x2,x0,x1
    250c:	00000393          	li	x7,0
    2510:	02800193          	li	x3,40
    2514:	04711463          	bne	x2,x7,255c <fail>

00002518 <test_41>:
    2518:	02000093          	li	x1,32
    251c:	00009133          	sll	x2,x1,x0
    2520:	02000393          	li	x7,32
    2524:	02900193          	li	x3,41
    2528:	02711a63          	bne	x2,x7,255c <fail>

0000252c <test_42>:
    252c:	000010b3          	sll	x1,x0,x0
    2530:	00000393          	li	x7,0
    2534:	02a00193          	li	x3,42
    2538:	02709263          	bne	x1,x7,255c <fail>

0000253c <test_43>:
    253c:	40000093          	li	x1,1024
    2540:	00001137          	lui	x2,0x1
    2544:	80010113          	addi	x2,x2,-2048 # 800 <_start-0x1800>
    2548:	00209033          	sll	x0,x1,x2
    254c:	00000393          	li	x7,0
    2550:	02b00193          	li	x3,43
    2554:	00701463          	bne	x0,x7,255c <fail>
    2558:	00301a63          	bne	x0,x3,256c <pass>

0000255c <fail>:
    255c:	00119193          	slli	x3,x3,0x1
    2560:	0011e193          	ori	x3,x3,1
    2564:	51e19073          	csrw	0x51e,x3

00002568 <f>:
    2568:	0000006f          	j	2568 <f>

0000256c <pass>:
    256c:	00100193          	li	x3,1
    2570:	51e19073          	csrw	0x51e,x3

00002574 <p>:
    2574:	0000006f          	j	2574 <p>
    2578:	c0001073          	unimp
	...
