
slti.elf:     file format elf32-littleriscv


Disassembly of section .text.init:

00002000 <_start>:
    2000:	0040006f          	j	2004 <reset_vector>

00002004 <reset_vector>:
    2004:	51e05073          	csrwi	0x51e,0
    2008:	00000193          	li	x3,0

0000200c <test_2>:
    200c:	00000093          	li	x1,0
    2010:	0000a713          	slti	x14,x1,0
    2014:	00000393          	li	x7,0
    2018:	00200193          	li	x3,2
    201c:	26771263          	bne	x14,x7,2280 <fail>

00002020 <test_3>:
    2020:	00100093          	li	x1,1
    2024:	0010a713          	slti	x14,x1,1
    2028:	00000393          	li	x7,0
    202c:	00300193          	li	x3,3
    2030:	24771863          	bne	x14,x7,2280 <fail>

00002034 <test_4>:
    2034:	00300093          	li	x1,3
    2038:	0070a713          	slti	x14,x1,7
    203c:	00100393          	li	x7,1
    2040:	00400193          	li	x3,4
    2044:	22771e63          	bne	x14,x7,2280 <fail>

00002048 <test_5>:
    2048:	00700093          	li	x1,7
    204c:	0030a713          	slti	x14,x1,3
    2050:	00000393          	li	x7,0
    2054:	00500193          	li	x3,5
    2058:	22771463          	bne	x14,x7,2280 <fail>

0000205c <test_6>:
    205c:	00000093          	li	x1,0
    2060:	8000a713          	slti	x14,x1,-2048
    2064:	00000393          	li	x7,0
    2068:	00600193          	li	x3,6
    206c:	20771a63          	bne	x14,x7,2280 <fail>

00002070 <test_7>:
    2070:	800000b7          	lui	x1,0x80000
    2074:	0000a713          	slti	x14,x1,0
    2078:	00100393          	li	x7,1
    207c:	00700193          	li	x3,7
    2080:	20771063          	bne	x14,x7,2280 <fail>

00002084 <test_8>:
    2084:	800000b7          	lui	x1,0x80000
    2088:	8000a713          	slti	x14,x1,-2048
    208c:	00100393          	li	x7,1
    2090:	00800193          	li	x3,8
    2094:	1e771663          	bne	x14,x7,2280 <fail>

00002098 <test_9>:
    2098:	00000093          	li	x1,0
    209c:	7ff0a713          	slti	x14,x1,2047
    20a0:	00100393          	li	x7,1
    20a4:	00900193          	li	x3,9
    20a8:	1c771c63          	bne	x14,x7,2280 <fail>

000020ac <test_10>:
    20ac:	800000b7          	lui	x1,0x80000
    20b0:	fff08093          	addi	x1,x1,-1 # 7fffffff <_end+0x7fffcfff>
    20b4:	0000a713          	slti	x14,x1,0
    20b8:	00000393          	li	x7,0
    20bc:	00a00193          	li	x3,10
    20c0:	1c771063          	bne	x14,x7,2280 <fail>

000020c4 <test_11>:
    20c4:	800000b7          	lui	x1,0x80000
    20c8:	fff08093          	addi	x1,x1,-1 # 7fffffff <_end+0x7fffcfff>
    20cc:	7ff0a713          	slti	x14,x1,2047
    20d0:	00000393          	li	x7,0
    20d4:	00b00193          	li	x3,11
    20d8:	1a771463          	bne	x14,x7,2280 <fail>

000020dc <test_12>:
    20dc:	800000b7          	lui	x1,0x80000
    20e0:	7ff0a713          	slti	x14,x1,2047
    20e4:	00100393          	li	x7,1
    20e8:	00c00193          	li	x3,12
    20ec:	18771a63          	bne	x14,x7,2280 <fail>

000020f0 <test_13>:
    20f0:	800000b7          	lui	x1,0x80000
    20f4:	fff08093          	addi	x1,x1,-1 # 7fffffff <_end+0x7fffcfff>
    20f8:	8000a713          	slti	x14,x1,-2048
    20fc:	00000393          	li	x7,0
    2100:	00d00193          	li	x3,13
    2104:	16771e63          	bne	x14,x7,2280 <fail>

00002108 <test_14>:
    2108:	00000093          	li	x1,0
    210c:	fff0a713          	slti	x14,x1,-1
    2110:	00000393          	li	x7,0
    2114:	00e00193          	li	x3,14
    2118:	16771463          	bne	x14,x7,2280 <fail>

0000211c <test_15>:
    211c:	fff00093          	li	x1,-1
    2120:	0010a713          	slti	x14,x1,1
    2124:	00100393          	li	x7,1
    2128:	00f00193          	li	x3,15
    212c:	14771a63          	bne	x14,x7,2280 <fail>

00002130 <test_16>:
    2130:	fff00093          	li	x1,-1
    2134:	fff0a713          	slti	x14,x1,-1
    2138:	00000393          	li	x7,0
    213c:	01000193          	li	x3,16
    2140:	14771063          	bne	x14,x7,2280 <fail>

00002144 <test_17>:
    2144:	00b00093          	li	x1,11
    2148:	00d0a093          	slti	x1,x1,13
    214c:	00100393          	li	x7,1
    2150:	01100193          	li	x3,17
    2154:	12709663          	bne	x1,x7,2280 <fail>

00002158 <test_18>:
    2158:	00000213          	li	x4,0
    215c:	00f00093          	li	x1,15
    2160:	00a0a713          	slti	x14,x1,10
    2164:	00070313          	mv	x6,x14
    2168:	00120213          	addi	x4,x4,1 # 1 <_start-0x1fff>
    216c:	00200293          	li	x5,2
    2170:	fe5216e3          	bne	x4,x5,215c <test_18+0x4>
    2174:	00000393          	li	x7,0
    2178:	01200193          	li	x3,18
    217c:	10731263          	bne	x6,x7,2280 <fail>

00002180 <test_19>:
    2180:	00000213          	li	x4,0
    2184:	00a00093          	li	x1,10
    2188:	0100a713          	slti	x14,x1,16
    218c:	00000013          	nop
    2190:	00070313          	mv	x6,x14
    2194:	00120213          	addi	x4,x4,1 # 1 <_start-0x1fff>
    2198:	00200293          	li	x5,2
    219c:	fe5214e3          	bne	x4,x5,2184 <test_19+0x4>
    21a0:	00100393          	li	x7,1
    21a4:	01300193          	li	x3,19
    21a8:	0c731c63          	bne	x6,x7,2280 <fail>

000021ac <test_20>:
    21ac:	00000213          	li	x4,0
    21b0:	01000093          	li	x1,16
    21b4:	0090a713          	slti	x14,x1,9
    21b8:	00000013          	nop
    21bc:	00000013          	nop
    21c0:	00070313          	mv	x6,x14
    21c4:	00120213          	addi	x4,x4,1 # 1 <_start-0x1fff>
    21c8:	00200293          	li	x5,2
    21cc:	fe5212e3          	bne	x4,x5,21b0 <test_20+0x4>
    21d0:	00000393          	li	x7,0
    21d4:	01400193          	li	x3,20
    21d8:	0a731463          	bne	x6,x7,2280 <fail>

000021dc <test_21>:
    21dc:	00000213          	li	x4,0
    21e0:	00b00093          	li	x1,11
    21e4:	00f0a713          	slti	x14,x1,15
    21e8:	00120213          	addi	x4,x4,1 # 1 <_start-0x1fff>
    21ec:	00200293          	li	x5,2
    21f0:	fe5218e3          	bne	x4,x5,21e0 <test_21+0x4>
    21f4:	00100393          	li	x7,1
    21f8:	01500193          	li	x3,21
    21fc:	08771263          	bne	x14,x7,2280 <fail>

00002200 <test_22>:
    2200:	00000213          	li	x4,0
    2204:	01100093          	li	x1,17
    2208:	00000013          	nop
    220c:	0080a713          	slti	x14,x1,8
    2210:	00120213          	addi	x4,x4,1 # 1 <_start-0x1fff>
    2214:	00200293          	li	x5,2
    2218:	fe5216e3          	bne	x4,x5,2204 <test_22+0x4>
    221c:	00000393          	li	x7,0
    2220:	01600193          	li	x3,22
    2224:	04771e63          	bne	x14,x7,2280 <fail>

00002228 <test_23>:
    2228:	00000213          	li	x4,0
    222c:	00c00093          	li	x1,12
    2230:	00000013          	nop
    2234:	00000013          	nop
    2238:	00e0a713          	slti	x14,x1,14
    223c:	00120213          	addi	x4,x4,1 # 1 <_start-0x1fff>
    2240:	00200293          	li	x5,2
    2244:	fe5214e3          	bne	x4,x5,222c <test_23+0x4>
    2248:	00100393          	li	x7,1
    224c:	01700193          	li	x3,23
    2250:	02771863          	bne	x14,x7,2280 <fail>

00002254 <test_24>:
    2254:	fff02093          	slti	x1,x0,-1
    2258:	00000393          	li	x7,0
    225c:	01800193          	li	x3,24
    2260:	02709063          	bne	x1,x7,2280 <fail>

00002264 <test_25>:
    2264:	00ff00b7          	lui	x1,0xff0
    2268:	0ff08093          	addi	x1,x1,255 # ff00ff <_end+0xfed0ff>
    226c:	fff0a013          	slti	x0,x1,-1
    2270:	00000393          	li	x7,0
    2274:	01900193          	li	x3,25
    2278:	00701463          	bne	x0,x7,2280 <fail>
    227c:	00301a63          	bne	x0,x3,2290 <pass>

00002280 <fail>:
    2280:	00119193          	slli	x3,x3,0x1
    2284:	0011e193          	ori	x3,x3,1
    2288:	51e19073          	csrw	0x51e,x3

0000228c <f>:
    228c:	0000006f          	j	228c <f>

00002290 <pass>:
    2290:	00100193          	li	x3,1
    2294:	51e19073          	csrw	0x51e,x3

00002298 <p>:
    2298:	0000006f          	j	2298 <p>
    229c:	c0001073          	unimp
	...
