
sra.elf:     file format elf32-littleriscv


Disassembly of section .text.init:

00002000 <_start>:
    2000:	0040006f          	j	2004 <reset_vector>

00002004 <reset_vector>:
    2004:	51e05073          	csrwi	0x51e,0
    2008:	00000193          	li	x3,0

0000200c <test_2>:
    200c:	800000b7          	lui	x1,0x80000
    2010:	00000113          	li	x2,0
    2014:	4020d733          	sra	x14,x1,x2
    2018:	800003b7          	lui	x7,0x80000
    201c:	00200193          	li	x3,2
    2020:	58771463          	bne	x14,x7,25a8 <fail>

00002024 <test_3>:
    2024:	800000b7          	lui	x1,0x80000
    2028:	00100113          	li	x2,1
    202c:	4020d733          	sra	x14,x1,x2
    2030:	c00003b7          	lui	x7,0xc0000
    2034:	00300193          	li	x3,3
    2038:	56771863          	bne	x14,x7,25a8 <fail>

0000203c <test_4>:
    203c:	800000b7          	lui	x1,0x80000
    2040:	00700113          	li	x2,7
    2044:	4020d733          	sra	x14,x1,x2
    2048:	ff0003b7          	lui	x7,0xff000
    204c:	00400193          	li	x3,4
    2050:	54771c63          	bne	x14,x7,25a8 <fail>

00002054 <test_5>:
    2054:	800000b7          	lui	x1,0x80000
    2058:	00e00113          	li	x2,14
    205c:	4020d733          	sra	x14,x1,x2
    2060:	fffe03b7          	lui	x7,0xfffe0
    2064:	00500193          	li	x3,5
    2068:	54771063          	bne	x14,x7,25a8 <fail>

0000206c <test_6>:
    206c:	800000b7          	lui	x1,0x80000
    2070:	00108093          	addi	x1,x1,1 # 80000001 <_end+0x7fffd001>
    2074:	01f00113          	li	x2,31
    2078:	4020d733          	sra	x14,x1,x2
    207c:	fff00393          	li	x7,-1
    2080:	00600193          	li	x3,6
    2084:	52771263          	bne	x14,x7,25a8 <fail>

00002088 <test_7>:
    2088:	800000b7          	lui	x1,0x80000
    208c:	fff08093          	addi	x1,x1,-1 # 7fffffff <_end+0x7fffcfff>
    2090:	00000113          	li	x2,0
    2094:	4020d733          	sra	x14,x1,x2
    2098:	800003b7          	lui	x7,0x80000
    209c:	fff38393          	addi	x7,x7,-1 # 7fffffff <_end+0x7fffcfff>
    20a0:	00700193          	li	x3,7
    20a4:	50771263          	bne	x14,x7,25a8 <fail>

000020a8 <test_8>:
    20a8:	800000b7          	lui	x1,0x80000
    20ac:	fff08093          	addi	x1,x1,-1 # 7fffffff <_end+0x7fffcfff>
    20b0:	00100113          	li	x2,1
    20b4:	4020d733          	sra	x14,x1,x2
    20b8:	400003b7          	lui	x7,0x40000
    20bc:	fff38393          	addi	x7,x7,-1 # 3fffffff <_end+0x3fffcfff>
    20c0:	00800193          	li	x3,8
    20c4:	4e771263          	bne	x14,x7,25a8 <fail>

000020c8 <test_9>:
    20c8:	800000b7          	lui	x1,0x80000
    20cc:	fff08093          	addi	x1,x1,-1 # 7fffffff <_end+0x7fffcfff>
    20d0:	00700113          	li	x2,7
    20d4:	4020d733          	sra	x14,x1,x2
    20d8:	010003b7          	lui	x7,0x1000
    20dc:	fff38393          	addi	x7,x7,-1 # ffffff <_end+0xffcfff>
    20e0:	00900193          	li	x3,9
    20e4:	4c771263          	bne	x14,x7,25a8 <fail>

000020e8 <test_10>:
    20e8:	800000b7          	lui	x1,0x80000
    20ec:	fff08093          	addi	x1,x1,-1 # 7fffffff <_end+0x7fffcfff>
    20f0:	00e00113          	li	x2,14
    20f4:	4020d733          	sra	x14,x1,x2
    20f8:	000203b7          	lui	x7,0x20
    20fc:	fff38393          	addi	x7,x7,-1 # 1ffff <_end+0x1cfff>
    2100:	00a00193          	li	x3,10
    2104:	4a771263          	bne	x14,x7,25a8 <fail>

00002108 <test_11>:
    2108:	800000b7          	lui	x1,0x80000
    210c:	fff08093          	addi	x1,x1,-1 # 7fffffff <_end+0x7fffcfff>
    2110:	01f00113          	li	x2,31
    2114:	4020d733          	sra	x14,x1,x2
    2118:	00000393          	li	x7,0
    211c:	00b00193          	li	x3,11
    2120:	48771463          	bne	x14,x7,25a8 <fail>

00002124 <test_12>:
    2124:	818180b7          	lui	x1,0x81818
    2128:	18108093          	addi	x1,x1,385 # 81818181 <_end+0x81815181>
    212c:	00000113          	li	x2,0
    2130:	4020d733          	sra	x14,x1,x2
    2134:	818183b7          	lui	x7,0x81818
    2138:	18138393          	addi	x7,x7,385 # 81818181 <_end+0x81815181>
    213c:	00c00193          	li	x3,12
    2140:	46771463          	bne	x14,x7,25a8 <fail>

00002144 <test_13>:
    2144:	818180b7          	lui	x1,0x81818
    2148:	18108093          	addi	x1,x1,385 # 81818181 <_end+0x81815181>
    214c:	00100113          	li	x2,1
    2150:	4020d733          	sra	x14,x1,x2
    2154:	c0c0c3b7          	lui	x7,0xc0c0c
    2158:	0c038393          	addi	x7,x7,192 # c0c0c0c0 <_end+0xc0c090c0>
    215c:	00d00193          	li	x3,13
    2160:	44771463          	bne	x14,x7,25a8 <fail>

00002164 <test_14>:
    2164:	818180b7          	lui	x1,0x81818
    2168:	18108093          	addi	x1,x1,385 # 81818181 <_end+0x81815181>
    216c:	00700113          	li	x2,7
    2170:	4020d733          	sra	x14,x1,x2
    2174:	ff0303b7          	lui	x7,0xff030
    2178:	30338393          	addi	x7,x7,771 # ff030303 <_end+0xff02d303>
    217c:	00e00193          	li	x3,14
    2180:	42771463          	bne	x14,x7,25a8 <fail>

00002184 <test_15>:
    2184:	818180b7          	lui	x1,0x81818
    2188:	18108093          	addi	x1,x1,385 # 81818181 <_end+0x81815181>
    218c:	00e00113          	li	x2,14
    2190:	4020d733          	sra	x14,x1,x2
    2194:	fffe03b7          	lui	x7,0xfffe0
    2198:	60638393          	addi	x7,x7,1542 # fffe0606 <_end+0xfffdd606>
    219c:	00f00193          	li	x3,15
    21a0:	40771463          	bne	x14,x7,25a8 <fail>

000021a4 <test_16>:
    21a4:	818180b7          	lui	x1,0x81818
    21a8:	18108093          	addi	x1,x1,385 # 81818181 <_end+0x81815181>
    21ac:	01f00113          	li	x2,31
    21b0:	4020d733          	sra	x14,x1,x2
    21b4:	fff00393          	li	x7,-1
    21b8:	01000193          	li	x3,16
    21bc:	3e771663          	bne	x14,x7,25a8 <fail>

000021c0 <test_17>:
    21c0:	818180b7          	lui	x1,0x81818
    21c4:	18108093          	addi	x1,x1,385 # 81818181 <_end+0x81815181>
    21c8:	fc000113          	li	x2,-64
    21cc:	4020d733          	sra	x14,x1,x2
    21d0:	818183b7          	lui	x7,0x81818
    21d4:	18138393          	addi	x7,x7,385 # 81818181 <_end+0x81815181>
    21d8:	01100193          	li	x3,17
    21dc:	3c771663          	bne	x14,x7,25a8 <fail>

000021e0 <test_18>:
    21e0:	818180b7          	lui	x1,0x81818
    21e4:	18108093          	addi	x1,x1,385 # 81818181 <_end+0x81815181>
    21e8:	fc100113          	li	x2,-63
    21ec:	4020d733          	sra	x14,x1,x2
    21f0:	c0c0c3b7          	lui	x7,0xc0c0c
    21f4:	0c038393          	addi	x7,x7,192 # c0c0c0c0 <_end+0xc0c090c0>
    21f8:	01200193          	li	x3,18
    21fc:	3a771663          	bne	x14,x7,25a8 <fail>

00002200 <test_19>:
    2200:	818180b7          	lui	x1,0x81818
    2204:	18108093          	addi	x1,x1,385 # 81818181 <_end+0x81815181>
    2208:	fc700113          	li	x2,-57
    220c:	4020d733          	sra	x14,x1,x2
    2210:	ff0303b7          	lui	x7,0xff030
    2214:	30338393          	addi	x7,x7,771 # ff030303 <_end+0xff02d303>
    2218:	01300193          	li	x3,19
    221c:	38771663          	bne	x14,x7,25a8 <fail>

00002220 <test_20>:
    2220:	818180b7          	lui	x1,0x81818
    2224:	18108093          	addi	x1,x1,385 # 81818181 <_end+0x81815181>
    2228:	fce00113          	li	x2,-50
    222c:	4020d733          	sra	x14,x1,x2
    2230:	fffe03b7          	lui	x7,0xfffe0
    2234:	60638393          	addi	x7,x7,1542 # fffe0606 <_end+0xfffdd606>
    2238:	01400193          	li	x3,20
    223c:	36771663          	bne	x14,x7,25a8 <fail>

00002240 <test_21>:
    2240:	818180b7          	lui	x1,0x81818
    2244:	18108093          	addi	x1,x1,385 # 81818181 <_end+0x81815181>
    2248:	fff00113          	li	x2,-1
    224c:	4020d733          	sra	x14,x1,x2
    2250:	fff00393          	li	x7,-1
    2254:	01500193          	li	x3,21
    2258:	34771863          	bne	x14,x7,25a8 <fail>

0000225c <test_22>:
    225c:	800000b7          	lui	x1,0x80000
    2260:	00700113          	li	x2,7
    2264:	4020d0b3          	sra	x1,x1,x2
    2268:	ff0003b7          	lui	x7,0xff000
    226c:	01600193          	li	x3,22
    2270:	32709c63          	bne	x1,x7,25a8 <fail>

00002274 <test_23>:
    2274:	800000b7          	lui	x1,0x80000
    2278:	00e00113          	li	x2,14
    227c:	4020d133          	sra	x2,x1,x2
    2280:	fffe03b7          	lui	x7,0xfffe0
    2284:	01700193          	li	x3,23
    2288:	32711063          	bne	x2,x7,25a8 <fail>

0000228c <test_24>:
    228c:	00700093          	li	x1,7
    2290:	4010d0b3          	sra	x1,x1,x1
    2294:	00000393          	li	x7,0
    2298:	01800193          	li	x3,24
    229c:	30709663          	bne	x1,x7,25a8 <fail>

000022a0 <test_25>:
    22a0:	00000213          	li	x4,0
    22a4:	800000b7          	lui	x1,0x80000
    22a8:	00700113          	li	x2,7
    22ac:	4020d733          	sra	x14,x1,x2
    22b0:	00070313          	mv	x6,x14
    22b4:	00120213          	addi	x4,x4,1 # 1 <_start-0x1fff>
    22b8:	00200293          	li	x5,2
    22bc:	fe5214e3          	bne	x4,x5,22a4 <test_25+0x4>
    22c0:	ff0003b7          	lui	x7,0xff000
    22c4:	01900193          	li	x3,25
    22c8:	2e731063          	bne	x6,x7,25a8 <fail>

000022cc <test_26>:
    22cc:	00000213          	li	x4,0
    22d0:	800000b7          	lui	x1,0x80000
    22d4:	00e00113          	li	x2,14
    22d8:	4020d733          	sra	x14,x1,x2
    22dc:	00000013          	nop
    22e0:	00070313          	mv	x6,x14
    22e4:	00120213          	addi	x4,x4,1 # 1 <_start-0x1fff>
    22e8:	00200293          	li	x5,2
    22ec:	fe5212e3          	bne	x4,x5,22d0 <test_26+0x4>
    22f0:	fffe03b7          	lui	x7,0xfffe0
    22f4:	01a00193          	li	x3,26
    22f8:	2a731863          	bne	x6,x7,25a8 <fail>

000022fc <test_27>:
    22fc:	00000213          	li	x4,0
    2300:	800000b7          	lui	x1,0x80000
    2304:	01f00113          	li	x2,31
    2308:	4020d733          	sra	x14,x1,x2
    230c:	00000013          	nop
    2310:	00000013          	nop
    2314:	00070313          	mv	x6,x14
    2318:	00120213          	addi	x4,x4,1 # 1 <_start-0x1fff>
    231c:	00200293          	li	x5,2
    2320:	fe5210e3          	bne	x4,x5,2300 <test_27+0x4>
    2324:	fff00393          	li	x7,-1
    2328:	01b00193          	li	x3,27
    232c:	26731e63          	bne	x6,x7,25a8 <fail>

00002330 <test_28>:
    2330:	00000213          	li	x4,0
    2334:	800000b7          	lui	x1,0x80000
    2338:	00700113          	li	x2,7
    233c:	4020d733          	sra	x14,x1,x2
    2340:	00120213          	addi	x4,x4,1 # 1 <_start-0x1fff>
    2344:	00200293          	li	x5,2
    2348:	fe5216e3          	bne	x4,x5,2334 <test_28+0x4>
    234c:	ff0003b7          	lui	x7,0xff000
    2350:	01c00193          	li	x3,28
    2354:	24771a63          	bne	x14,x7,25a8 <fail>

00002358 <test_29>:
    2358:	00000213          	li	x4,0
    235c:	800000b7          	lui	x1,0x80000
    2360:	00e00113          	li	x2,14
    2364:	00000013          	nop
    2368:	4020d733          	sra	x14,x1,x2
    236c:	00120213          	addi	x4,x4,1 # 1 <_start-0x1fff>
    2370:	00200293          	li	x5,2
    2374:	fe5214e3          	bne	x4,x5,235c <test_29+0x4>
    2378:	fffe03b7          	lui	x7,0xfffe0
    237c:	01d00193          	li	x3,29
    2380:	22771463          	bne	x14,x7,25a8 <fail>

00002384 <test_30>:
    2384:	00000213          	li	x4,0
    2388:	800000b7          	lui	x1,0x80000
    238c:	01f00113          	li	x2,31
    2390:	00000013          	nop
    2394:	00000013          	nop
    2398:	4020d733          	sra	x14,x1,x2
    239c:	00120213          	addi	x4,x4,1 # 1 <_start-0x1fff>
    23a0:	00200293          	li	x5,2
    23a4:	fe5212e3          	bne	x4,x5,2388 <test_30+0x4>
    23a8:	fff00393          	li	x7,-1
    23ac:	01e00193          	li	x3,30
    23b0:	1e771c63          	bne	x14,x7,25a8 <fail>

000023b4 <test_31>:
    23b4:	00000213          	li	x4,0
    23b8:	800000b7          	lui	x1,0x80000
    23bc:	00000013          	nop
    23c0:	00700113          	li	x2,7
    23c4:	4020d733          	sra	x14,x1,x2
    23c8:	00120213          	addi	x4,x4,1 # 1 <_start-0x1fff>
    23cc:	00200293          	li	x5,2
    23d0:	fe5214e3          	bne	x4,x5,23b8 <test_31+0x4>
    23d4:	ff0003b7          	lui	x7,0xff000
    23d8:	01f00193          	li	x3,31
    23dc:	1c771663          	bne	x14,x7,25a8 <fail>

000023e0 <test_32>:
    23e0:	00000213          	li	x4,0
    23e4:	800000b7          	lui	x1,0x80000
    23e8:	00000013          	nop
    23ec:	00e00113          	li	x2,14
    23f0:	00000013          	nop
    23f4:	4020d733          	sra	x14,x1,x2
    23f8:	00120213          	addi	x4,x4,1 # 1 <_start-0x1fff>
    23fc:	00200293          	li	x5,2
    2400:	fe5212e3          	bne	x4,x5,23e4 <test_32+0x4>
    2404:	fffe03b7          	lui	x7,0xfffe0
    2408:	02000193          	li	x3,32
    240c:	18771e63          	bne	x14,x7,25a8 <fail>

00002410 <test_33>:
    2410:	00000213          	li	x4,0
    2414:	800000b7          	lui	x1,0x80000
    2418:	00000013          	nop
    241c:	00000013          	nop
    2420:	01f00113          	li	x2,31
    2424:	4020d733          	sra	x14,x1,x2
    2428:	00120213          	addi	x4,x4,1 # 1 <_start-0x1fff>
    242c:	00200293          	li	x5,2
    2430:	fe5212e3          	bne	x4,x5,2414 <test_33+0x4>
    2434:	fff00393          	li	x7,-1
    2438:	02100193          	li	x3,33
    243c:	16771663          	bne	x14,x7,25a8 <fail>

00002440 <test_34>:
    2440:	00000213          	li	x4,0
    2444:	00700113          	li	x2,7
    2448:	800000b7          	lui	x1,0x80000
    244c:	4020d733          	sra	x14,x1,x2
    2450:	00120213          	addi	x4,x4,1 # 1 <_start-0x1fff>
    2454:	00200293          	li	x5,2
    2458:	fe5216e3          	bne	x4,x5,2444 <test_34+0x4>
    245c:	ff0003b7          	lui	x7,0xff000
    2460:	02200193          	li	x3,34
    2464:	14771263          	bne	x14,x7,25a8 <fail>

00002468 <test_35>:
    2468:	00000213          	li	x4,0
    246c:	00e00113          	li	x2,14
    2470:	800000b7          	lui	x1,0x80000
    2474:	00000013          	nop
    2478:	4020d733          	sra	x14,x1,x2
    247c:	00120213          	addi	x4,x4,1 # 1 <_start-0x1fff>
    2480:	00200293          	li	x5,2
    2484:	fe5214e3          	bne	x4,x5,246c <test_35+0x4>
    2488:	fffe03b7          	lui	x7,0xfffe0
    248c:	02300193          	li	x3,35
    2490:	10771c63          	bne	x14,x7,25a8 <fail>

00002494 <test_36>:
    2494:	00000213          	li	x4,0
    2498:	01f00113          	li	x2,31
    249c:	800000b7          	lui	x1,0x80000
    24a0:	00000013          	nop
    24a4:	00000013          	nop
    24a8:	4020d733          	sra	x14,x1,x2
    24ac:	00120213          	addi	x4,x4,1 # 1 <_start-0x1fff>
    24b0:	00200293          	li	x5,2
    24b4:	fe5212e3          	bne	x4,x5,2498 <test_36+0x4>
    24b8:	fff00393          	li	x7,-1
    24bc:	02400193          	li	x3,36
    24c0:	0e771463          	bne	x14,x7,25a8 <fail>

000024c4 <test_37>:
    24c4:	00000213          	li	x4,0
    24c8:	00700113          	li	x2,7
    24cc:	00000013          	nop
    24d0:	800000b7          	lui	x1,0x80000
    24d4:	4020d733          	sra	x14,x1,x2
    24d8:	00120213          	addi	x4,x4,1 # 1 <_start-0x1fff>
    24dc:	00200293          	li	x5,2
    24e0:	fe5214e3          	bne	x4,x5,24c8 <test_37+0x4>
    24e4:	ff0003b7          	lui	x7,0xff000
    24e8:	02500193          	li	x3,37
    24ec:	0a771e63          	bne	x14,x7,25a8 <fail>

000024f0 <test_38>:
    24f0:	00000213          	li	x4,0
    24f4:	00e00113          	li	x2,14
    24f8:	00000013          	nop
    24fc:	800000b7          	lui	x1,0x80000
    2500:	00000013          	nop
    2504:	4020d733          	sra	x14,x1,x2
    2508:	00120213          	addi	x4,x4,1 # 1 <_start-0x1fff>
    250c:	00200293          	li	x5,2
    2510:	fe5212e3          	bne	x4,x5,24f4 <test_38+0x4>
    2514:	fffe03b7          	lui	x7,0xfffe0
    2518:	02600193          	li	x3,38
    251c:	08771663          	bne	x14,x7,25a8 <fail>

00002520 <test_39>:
    2520:	00000213          	li	x4,0
    2524:	01f00113          	li	x2,31
    2528:	00000013          	nop
    252c:	00000013          	nop
    2530:	800000b7          	lui	x1,0x80000
    2534:	4020d733          	sra	x14,x1,x2
    2538:	00120213          	addi	x4,x4,1 # 1 <_start-0x1fff>
    253c:	00200293          	li	x5,2
    2540:	fe5212e3          	bne	x4,x5,2524 <test_39+0x4>
    2544:	fff00393          	li	x7,-1
    2548:	02700193          	li	x3,39
    254c:	04771e63          	bne	x14,x7,25a8 <fail>

00002550 <test_40>:
    2550:	00f00093          	li	x1,15
    2554:	40105133          	sra	x2,x0,x1
    2558:	00000393          	li	x7,0
    255c:	02800193          	li	x3,40
    2560:	04711463          	bne	x2,x7,25a8 <fail>

00002564 <test_41>:
    2564:	02000093          	li	x1,32
    2568:	4000d133          	sra	x2,x1,x0
    256c:	02000393          	li	x7,32
    2570:	02900193          	li	x3,41
    2574:	02711a63          	bne	x2,x7,25a8 <fail>

00002578 <test_42>:
    2578:	400050b3          	sra	x1,x0,x0
    257c:	00000393          	li	x7,0
    2580:	02a00193          	li	x3,42
    2584:	02709263          	bne	x1,x7,25a8 <fail>

00002588 <test_43>:
    2588:	40000093          	li	x1,1024
    258c:	00001137          	lui	x2,0x1
    2590:	80010113          	addi	x2,x2,-2048 # 800 <_start-0x1800>
    2594:	4020d033          	sra	x0,x1,x2
    2598:	00000393          	li	x7,0
    259c:	02b00193          	li	x3,43
    25a0:	00701463          	bne	x0,x7,25a8 <fail>
    25a4:	00301a63          	bne	x0,x3,25b8 <pass>

000025a8 <fail>:
    25a8:	00119193          	slli	x3,x3,0x1
    25ac:	0011e193          	ori	x3,x3,1
    25b0:	51e19073          	csrw	0x51e,x3

000025b4 <f>:
    25b4:	0000006f          	j	25b4 <f>

000025b8 <pass>:
    25b8:	00100193          	li	x3,1
    25bc:	51e19073          	csrw	0x51e,x3

000025c0 <p>:
    25c0:	0000006f          	j	25c0 <p>
    25c4:	c0001073          	unimp
	...
