
srl.elf:     file format elf32-littleriscv


Disassembly of section .text.init:

00002000 <_start>:
    2000:	0040006f          	j	2004 <reset_vector>

00002004 <reset_vector>:
    2004:	51e05073          	csrwi	0x51e,0
    2008:	00000193          	li	x3,0

0000200c <test_2>:
    200c:	800000b7          	lui	x1,0x80000
    2010:	00000113          	li	x2,0
    2014:	0020d733          	srl	x14,x1,x2
    2018:	800003b7          	lui	x7,0x80000
    201c:	00200193          	li	x3,2
    2020:	56771863          	bne	x14,x7,2590 <fail>

00002024 <test_3>:
    2024:	800000b7          	lui	x1,0x80000
    2028:	00100113          	li	x2,1
    202c:	0020d733          	srl	x14,x1,x2
    2030:	400003b7          	lui	x7,0x40000
    2034:	00300193          	li	x3,3
    2038:	54771c63          	bne	x14,x7,2590 <fail>

0000203c <test_4>:
    203c:	800000b7          	lui	x1,0x80000
    2040:	00700113          	li	x2,7
    2044:	0020d733          	srl	x14,x1,x2
    2048:	010003b7          	lui	x7,0x1000
    204c:	00400193          	li	x3,4
    2050:	54771063          	bne	x14,x7,2590 <fail>

00002054 <test_5>:
    2054:	800000b7          	lui	x1,0x80000
    2058:	00e00113          	li	x2,14
    205c:	0020d733          	srl	x14,x1,x2
    2060:	000203b7          	lui	x7,0x20
    2064:	00500193          	li	x3,5
    2068:	52771463          	bne	x14,x7,2590 <fail>

0000206c <test_6>:
    206c:	800000b7          	lui	x1,0x80000
    2070:	00108093          	addi	x1,x1,1 # 80000001 <_end+0x7fffd001>
    2074:	01f00113          	li	x2,31
    2078:	0020d733          	srl	x14,x1,x2
    207c:	00100393          	li	x7,1
    2080:	00600193          	li	x3,6
    2084:	50771663          	bne	x14,x7,2590 <fail>

00002088 <test_7>:
    2088:	fff00093          	li	x1,-1
    208c:	00000113          	li	x2,0
    2090:	0020d733          	srl	x14,x1,x2
    2094:	fff00393          	li	x7,-1
    2098:	00700193          	li	x3,7
    209c:	4e771a63          	bne	x14,x7,2590 <fail>

000020a0 <test_8>:
    20a0:	fff00093          	li	x1,-1
    20a4:	00100113          	li	x2,1
    20a8:	0020d733          	srl	x14,x1,x2
    20ac:	800003b7          	lui	x7,0x80000
    20b0:	fff38393          	addi	x7,x7,-1 # 7fffffff <_end+0x7fffcfff>
    20b4:	00800193          	li	x3,8
    20b8:	4c771c63          	bne	x14,x7,2590 <fail>

000020bc <test_9>:
    20bc:	fff00093          	li	x1,-1
    20c0:	00700113          	li	x2,7
    20c4:	0020d733          	srl	x14,x1,x2
    20c8:	020003b7          	lui	x7,0x2000
    20cc:	fff38393          	addi	x7,x7,-1 # 1ffffff <_end+0x1ffcfff>
    20d0:	00900193          	li	x3,9
    20d4:	4a771e63          	bne	x14,x7,2590 <fail>

000020d8 <test_10>:
    20d8:	fff00093          	li	x1,-1
    20dc:	00e00113          	li	x2,14
    20e0:	0020d733          	srl	x14,x1,x2
    20e4:	000403b7          	lui	x7,0x40
    20e8:	fff38393          	addi	x7,x7,-1 # 3ffff <_end+0x3cfff>
    20ec:	00a00193          	li	x3,10
    20f0:	4a771063          	bne	x14,x7,2590 <fail>

000020f4 <test_11>:
    20f4:	fff00093          	li	x1,-1
    20f8:	01f00113          	li	x2,31
    20fc:	0020d733          	srl	x14,x1,x2
    2100:	00100393          	li	x7,1
    2104:	00b00193          	li	x3,11
    2108:	48771463          	bne	x14,x7,2590 <fail>

0000210c <test_12>:
    210c:	212120b7          	lui	x1,0x21212
    2110:	12108093          	addi	x1,x1,289 # 21212121 <_end+0x2120f121>
    2114:	00000113          	li	x2,0
    2118:	0020d733          	srl	x14,x1,x2
    211c:	212123b7          	lui	x7,0x21212
    2120:	12138393          	addi	x7,x7,289 # 21212121 <_end+0x2120f121>
    2124:	00c00193          	li	x3,12
    2128:	46771463          	bne	x14,x7,2590 <fail>

0000212c <test_13>:
    212c:	212120b7          	lui	x1,0x21212
    2130:	12108093          	addi	x1,x1,289 # 21212121 <_end+0x2120f121>
    2134:	00100113          	li	x2,1
    2138:	0020d733          	srl	x14,x1,x2
    213c:	109093b7          	lui	x7,0x10909
    2140:	09038393          	addi	x7,x7,144 # 10909090 <_end+0x10906090>
    2144:	00d00193          	li	x3,13
    2148:	44771463          	bne	x14,x7,2590 <fail>

0000214c <test_14>:
    214c:	212120b7          	lui	x1,0x21212
    2150:	12108093          	addi	x1,x1,289 # 21212121 <_end+0x2120f121>
    2154:	00700113          	li	x2,7
    2158:	0020d733          	srl	x14,x1,x2
    215c:	004243b7          	lui	x7,0x424
    2160:	24238393          	addi	x7,x7,578 # 424242 <_end+0x421242>
    2164:	00e00193          	li	x3,14
    2168:	42771463          	bne	x14,x7,2590 <fail>

0000216c <test_15>:
    216c:	212120b7          	lui	x1,0x21212
    2170:	12108093          	addi	x1,x1,289 # 21212121 <_end+0x2120f121>
    2174:	00e00113          	li	x2,14
    2178:	0020d733          	srl	x14,x1,x2
    217c:	000083b7          	lui	x7,0x8
    2180:	48438393          	addi	x7,x7,1156 # 8484 <_end+0x5484>
    2184:	00f00193          	li	x3,15
    2188:	40771463          	bne	x14,x7,2590 <fail>

0000218c <test_16>:
    218c:	212120b7          	lui	x1,0x21212
    2190:	12108093          	addi	x1,x1,289 # 21212121 <_end+0x2120f121>
    2194:	01f00113          	li	x2,31
    2198:	0020d733          	srl	x14,x1,x2
    219c:	00000393          	li	x7,0
    21a0:	01000193          	li	x3,16
    21a4:	3e771663          	bne	x14,x7,2590 <fail>

000021a8 <test_17>:
    21a8:	212120b7          	lui	x1,0x21212
    21ac:	12108093          	addi	x1,x1,289 # 21212121 <_end+0x2120f121>
    21b0:	fc000113          	li	x2,-64
    21b4:	0020d733          	srl	x14,x1,x2
    21b8:	212123b7          	lui	x7,0x21212
    21bc:	12138393          	addi	x7,x7,289 # 21212121 <_end+0x2120f121>
    21c0:	01100193          	li	x3,17
    21c4:	3c771663          	bne	x14,x7,2590 <fail>

000021c8 <test_18>:
    21c8:	212120b7          	lui	x1,0x21212
    21cc:	12108093          	addi	x1,x1,289 # 21212121 <_end+0x2120f121>
    21d0:	fc100113          	li	x2,-63
    21d4:	0020d733          	srl	x14,x1,x2
    21d8:	109093b7          	lui	x7,0x10909
    21dc:	09038393          	addi	x7,x7,144 # 10909090 <_end+0x10906090>
    21e0:	01200193          	li	x3,18
    21e4:	3a771663          	bne	x14,x7,2590 <fail>

000021e8 <test_19>:
    21e8:	212120b7          	lui	x1,0x21212
    21ec:	12108093          	addi	x1,x1,289 # 21212121 <_end+0x2120f121>
    21f0:	fc700113          	li	x2,-57
    21f4:	0020d733          	srl	x14,x1,x2
    21f8:	004243b7          	lui	x7,0x424
    21fc:	24238393          	addi	x7,x7,578 # 424242 <_end+0x421242>
    2200:	01300193          	li	x3,19
    2204:	38771663          	bne	x14,x7,2590 <fail>

00002208 <test_20>:
    2208:	212120b7          	lui	x1,0x21212
    220c:	12108093          	addi	x1,x1,289 # 21212121 <_end+0x2120f121>
    2210:	fce00113          	li	x2,-50
    2214:	0020d733          	srl	x14,x1,x2
    2218:	000083b7          	lui	x7,0x8
    221c:	48438393          	addi	x7,x7,1156 # 8484 <_end+0x5484>
    2220:	01400193          	li	x3,20
    2224:	36771663          	bne	x14,x7,2590 <fail>

00002228 <test_21>:
    2228:	212120b7          	lui	x1,0x21212
    222c:	12108093          	addi	x1,x1,289 # 21212121 <_end+0x2120f121>
    2230:	fff00113          	li	x2,-1
    2234:	0020d733          	srl	x14,x1,x2
    2238:	00000393          	li	x7,0
    223c:	01500193          	li	x3,21
    2240:	34771863          	bne	x14,x7,2590 <fail>

00002244 <test_22>:
    2244:	800000b7          	lui	x1,0x80000
    2248:	00700113          	li	x2,7
    224c:	0020d0b3          	srl	x1,x1,x2
    2250:	010003b7          	lui	x7,0x1000
    2254:	01600193          	li	x3,22
    2258:	32709c63          	bne	x1,x7,2590 <fail>

0000225c <test_23>:
    225c:	800000b7          	lui	x1,0x80000
    2260:	00e00113          	li	x2,14
    2264:	0020d133          	srl	x2,x1,x2
    2268:	000203b7          	lui	x7,0x20
    226c:	01700193          	li	x3,23
    2270:	32711063          	bne	x2,x7,2590 <fail>

00002274 <test_24>:
    2274:	00700093          	li	x1,7
    2278:	0010d0b3          	srl	x1,x1,x1
    227c:	00000393          	li	x7,0
    2280:	01800193          	li	x3,24
    2284:	30709663          	bne	x1,x7,2590 <fail>

00002288 <test_25>:
    2288:	00000213          	li	x4,0
    228c:	800000b7          	lui	x1,0x80000
    2290:	00700113          	li	x2,7
    2294:	0020d733          	srl	x14,x1,x2
    2298:	00070313          	mv	x6,x14
    229c:	00120213          	addi	x4,x4,1 # 1 <_start-0x1fff>
    22a0:	00200293          	li	x5,2
    22a4:	fe5214e3          	bne	x4,x5,228c <test_25+0x4>
    22a8:	010003b7          	lui	x7,0x1000
    22ac:	01900193          	li	x3,25
    22b0:	2e731063          	bne	x6,x7,2590 <fail>

000022b4 <test_26>:
    22b4:	00000213          	li	x4,0
    22b8:	800000b7          	lui	x1,0x80000
    22bc:	00e00113          	li	x2,14
    22c0:	0020d733          	srl	x14,x1,x2
    22c4:	00000013          	nop
    22c8:	00070313          	mv	x6,x14
    22cc:	00120213          	addi	x4,x4,1 # 1 <_start-0x1fff>
    22d0:	00200293          	li	x5,2
    22d4:	fe5212e3          	bne	x4,x5,22b8 <test_26+0x4>
    22d8:	000203b7          	lui	x7,0x20
    22dc:	01a00193          	li	x3,26
    22e0:	2a731863          	bne	x6,x7,2590 <fail>

000022e4 <test_27>:
    22e4:	00000213          	li	x4,0
    22e8:	800000b7          	lui	x1,0x80000
    22ec:	01f00113          	li	x2,31
    22f0:	0020d733          	srl	x14,x1,x2
    22f4:	00000013          	nop
    22f8:	00000013          	nop
    22fc:	00070313          	mv	x6,x14
    2300:	00120213          	addi	x4,x4,1 # 1 <_start-0x1fff>
    2304:	00200293          	li	x5,2
    2308:	fe5210e3          	bne	x4,x5,22e8 <test_27+0x4>
    230c:	00100393          	li	x7,1
    2310:	01b00193          	li	x3,27
    2314:	26731e63          	bne	x6,x7,2590 <fail>

00002318 <test_28>:
    2318:	00000213          	li	x4,0
    231c:	800000b7          	lui	x1,0x80000
    2320:	00700113          	li	x2,7
    2324:	0020d733          	srl	x14,x1,x2
    2328:	00120213          	addi	x4,x4,1 # 1 <_start-0x1fff>
    232c:	00200293          	li	x5,2
    2330:	fe5216e3          	bne	x4,x5,231c <test_28+0x4>
    2334:	010003b7          	lui	x7,0x1000
    2338:	01c00193          	li	x3,28
    233c:	24771a63          	bne	x14,x7,2590 <fail>

00002340 <test_29>:
    2340:	00000213          	li	x4,0
    2344:	800000b7          	lui	x1,0x80000
    2348:	00e00113          	li	x2,14
    234c:	00000013          	nop
    2350:	0020d733          	srl	x14,x1,x2
    2354:	00120213          	addi	x4,x4,1 # 1 <_start-0x1fff>
    2358:	00200293          	li	x5,2
    235c:	fe5214e3          	bne	x4,x5,2344 <test_29+0x4>
    2360:	000203b7          	lui	x7,0x20
    2364:	01d00193          	li	x3,29
    2368:	22771463          	bne	x14,x7,2590 <fail>

0000236c <test_30>:
    236c:	00000213          	li	x4,0
    2370:	800000b7          	lui	x1,0x80000
    2374:	01f00113          	li	x2,31
    2378:	00000013          	nop
    237c:	00000013          	nop
    2380:	0020d733          	srl	x14,x1,x2
    2384:	00120213          	addi	x4,x4,1 # 1 <_start-0x1fff>
    2388:	00200293          	li	x5,2
    238c:	fe5212e3          	bne	x4,x5,2370 <test_30+0x4>
    2390:	00100393          	li	x7,1
    2394:	01e00193          	li	x3,30
    2398:	1e771c63          	bne	x14,x7,2590 <fail>

0000239c <test_31>:
    239c:	00000213          	li	x4,0
    23a0:	800000b7          	lui	x1,0x80000
    23a4:	00000013          	nop
    23a8:	00700113          	li	x2,7
    23ac:	0020d733          	srl	x14,x1,x2
    23b0:	00120213          	addi	x4,x4,1 # 1 <_start-0x1fff>
    23b4:	00200293          	li	x5,2
    23b8:	fe5214e3          	bne	x4,x5,23a0 <test_31+0x4>
    23bc:	010003b7          	lui	x7,0x1000
    23c0:	01f00193          	li	x3,31
    23c4:	1c771663          	bne	x14,x7,2590 <fail>

000023c8 <test_32>:
    23c8:	00000213          	li	x4,0
    23cc:	800000b7          	lui	x1,0x80000
    23d0:	00000013          	nop
    23d4:	00e00113          	li	x2,14
    23d8:	00000013          	nop
    23dc:	0020d733          	srl	x14,x1,x2
    23e0:	00120213          	addi	x4,x4,1 # 1 <_start-0x1fff>
    23e4:	00200293          	li	x5,2
    23e8:	fe5212e3          	bne	x4,x5,23cc <test_32+0x4>
    23ec:	000203b7          	lui	x7,0x20
    23f0:	02000193          	li	x3,32
    23f4:	18771e63          	bne	x14,x7,2590 <fail>

000023f8 <test_33>:
    23f8:	00000213          	li	x4,0
    23fc:	800000b7          	lui	x1,0x80000
    2400:	00000013          	nop
    2404:	00000013          	nop
    2408:	01f00113          	li	x2,31
    240c:	0020d733          	srl	x14,x1,x2
    2410:	00120213          	addi	x4,x4,1 # 1 <_start-0x1fff>
    2414:	00200293          	li	x5,2
    2418:	fe5212e3          	bne	x4,x5,23fc <test_33+0x4>
    241c:	00100393          	li	x7,1
    2420:	02100193          	li	x3,33
    2424:	16771663          	bne	x14,x7,2590 <fail>

00002428 <test_34>:
    2428:	00000213          	li	x4,0
    242c:	00700113          	li	x2,7
    2430:	800000b7          	lui	x1,0x80000
    2434:	0020d733          	srl	x14,x1,x2
    2438:	00120213          	addi	x4,x4,1 # 1 <_start-0x1fff>
    243c:	00200293          	li	x5,2
    2440:	fe5216e3          	bne	x4,x5,242c <test_34+0x4>
    2444:	010003b7          	lui	x7,0x1000
    2448:	02200193          	li	x3,34
    244c:	14771263          	bne	x14,x7,2590 <fail>

00002450 <test_35>:
    2450:	00000213          	li	x4,0
    2454:	00e00113          	li	x2,14
    2458:	800000b7          	lui	x1,0x80000
    245c:	00000013          	nop
    2460:	0020d733          	srl	x14,x1,x2
    2464:	00120213          	addi	x4,x4,1 # 1 <_start-0x1fff>
    2468:	00200293          	li	x5,2
    246c:	fe5214e3          	bne	x4,x5,2454 <test_35+0x4>
    2470:	000203b7          	lui	x7,0x20
    2474:	02300193          	li	x3,35
    2478:	10771c63          	bne	x14,x7,2590 <fail>

0000247c <test_36>:
    247c:	00000213          	li	x4,0
    2480:	01f00113          	li	x2,31
    2484:	800000b7          	lui	x1,0x80000
    2488:	00000013          	nop
    248c:	00000013          	nop
    2490:	0020d733          	srl	x14,x1,x2
    2494:	00120213          	addi	x4,x4,1 # 1 <_start-0x1fff>
    2498:	00200293          	li	x5,2
    249c:	fe5212e3          	bne	x4,x5,2480 <test_36+0x4>
    24a0:	00100393          	li	x7,1
    24a4:	02400193          	li	x3,36
    24a8:	0e771463          	bne	x14,x7,2590 <fail>

000024ac <test_37>:
    24ac:	00000213          	li	x4,0
    24b0:	00700113          	li	x2,7
    24b4:	00000013          	nop
    24b8:	800000b7          	lui	x1,0x80000
    24bc:	0020d733          	srl	x14,x1,x2
    24c0:	00120213          	addi	x4,x4,1 # 1 <_start-0x1fff>
    24c4:	00200293          	li	x5,2
    24c8:	fe5214e3          	bne	x4,x5,24b0 <test_37+0x4>
    24cc:	010003b7          	lui	x7,0x1000
    24d0:	02500193          	li	x3,37
    24d4:	0a771e63          	bne	x14,x7,2590 <fail>

000024d8 <test_38>:
    24d8:	00000213          	li	x4,0
    24dc:	00e00113          	li	x2,14
    24e0:	00000013          	nop
    24e4:	800000b7          	lui	x1,0x80000
    24e8:	00000013          	nop
    24ec:	0020d733          	srl	x14,x1,x2
    24f0:	00120213          	addi	x4,x4,1 # 1 <_start-0x1fff>
    24f4:	00200293          	li	x5,2
    24f8:	fe5212e3          	bne	x4,x5,24dc <test_38+0x4>
    24fc:	000203b7          	lui	x7,0x20
    2500:	02600193          	li	x3,38
    2504:	08771663          	bne	x14,x7,2590 <fail>

00002508 <test_39>:
    2508:	00000213          	li	x4,0
    250c:	01f00113          	li	x2,31
    2510:	00000013          	nop
    2514:	00000013          	nop
    2518:	800000b7          	lui	x1,0x80000
    251c:	0020d733          	srl	x14,x1,x2
    2520:	00120213          	addi	x4,x4,1 # 1 <_start-0x1fff>
    2524:	00200293          	li	x5,2
    2528:	fe5212e3          	bne	x4,x5,250c <test_39+0x4>
    252c:	00100393          	li	x7,1
    2530:	02700193          	li	x3,39
    2534:	04771e63          	bne	x14,x7,2590 <fail>

00002538 <test_40>:
    2538:	00f00093          	li	x1,15
    253c:	00105133          	srl	x2,x0,x1
    2540:	00000393          	li	x7,0
    2544:	02800193          	li	x3,40
    2548:	04711463          	bne	x2,x7,2590 <fail>

0000254c <test_41>:
    254c:	02000093          	li	x1,32
    2550:	0000d133          	srl	x2,x1,x0
    2554:	02000393          	li	x7,32
    2558:	02900193          	li	x3,41
    255c:	02711a63          	bne	x2,x7,2590 <fail>

00002560 <test_42>:
    2560:	000050b3          	srl	x1,x0,x0
    2564:	00000393          	li	x7,0
    2568:	02a00193          	li	x3,42
    256c:	02709263          	bne	x1,x7,2590 <fail>

00002570 <test_43>:
    2570:	40000093          	li	x1,1024
    2574:	00001137          	lui	x2,0x1
    2578:	80010113          	addi	x2,x2,-2048 # 800 <_start-0x1800>
    257c:	0020d033          	srl	x0,x1,x2
    2580:	00000393          	li	x7,0
    2584:	02b00193          	li	x3,43
    2588:	00701463          	bne	x0,x7,2590 <fail>
    258c:	00301a63          	bne	x0,x3,25a0 <pass>

00002590 <fail>:
    2590:	00119193          	slli	x3,x3,0x1
    2594:	0011e193          	ori	x3,x3,1
    2598:	51e19073          	csrw	0x51e,x3

0000259c <f>:
    259c:	0000006f          	j	259c <f>

000025a0 <pass>:
    25a0:	00100193          	li	x3,1
    25a4:	51e19073          	csrw	0x51e,x3

000025a8 <p>:
    25a8:	0000006f          	j	25a8 <p>
    25ac:	c0001073          	unimp
	...
